; Function Attrs: mustprogress uwtable
define noundef range(i64 0, 4294967296) i64 @_ZNK9base_hash4hashIN4base11trace_event9BacktraceEEclERKS3_(ptr noundef nonnull readnone align 1 captures(none) dereferenceable(1) %0, ptr noundef nonnull readonly align 8 captures(none) dereferenceable(776) %1) local_unnamed_addr #2 align 2 {
  %3 = alloca [48 x ptr], align 16
  call void @llvm.lifetime.start.p0(i64 384, ptr nonnull %3) #7
  %4 = getelementptr inbounds nuw i8, ptr %1, i64 768
  %5 = load i64, ptr %4, align 8, !tbaa !9
  %.not7 = icmp eq i64 %5, 0
  br i1 %.not7, label %._crit_edge, label %.lr.ph

._crit_edge:                                      ; preds = %.lr.ph, %2
  %.tr = trunc i64 %5 to i32
  %6 = shl i32 %.tr, 3
  %7 = sext i32 %6 to i64
  %8 = call noundef i32 @_ZN4base13SuperFastHashEPKcm(ptr noundef nonnull %3, i64 noundef %7)
  %9 = zext i32 %8 to i64
  call void @llvm.lifetime.end.p0(i64 384, ptr nonnull %3) #7
  ret i64 %9

.lr.ph:                                           ; preds = %2, %.lr.ph
  %.08 = phi i64 [ %13, %.lr.ph ], [ 0, %2 ]
  %10 = getelementptr inbounds nuw [48 x %"struct.base::trace_event::StackFrame"], ptr %1, i64 0, i64 %.08, i32 1
  %11 = load ptr, ptr %10, align 8, !tbaa !3
  %12 = getelementptr inbounds nuw [48 x ptr], ptr %3, i64 0, i64 %.08
  store ptr %11, ptr %12, align 8, !tbaa !20
  %13 = add nuw i64 %.08, 1
  %.not = icmp eq i64 %13, %5
  br i1 %.not, label %._crit_edge, label %.lr.ph, !llvm.loop !21
}